target datalayout = "e-m:e-p270:32:32-p271:32:32-p272:64:64-i64:64-i128:128-f80:128-n8:16:32:64-S128"
target triple = "x86_64-pc-linux-gnu"

%struct.trace_key = type { ptr, i32, i8 }
%struct.index_state = type { ptr, i32, i32, i32, i32, ptr, ptr, ptr, %struct.cache_time, i8, i32, %struct.hashmap, %struct.hashmap, %struct.object_id, ptr, ptr, ptr, ptr, ptr, ptr, ptr }
%struct.cache_time = type { i32, i32 }
%struct.hashmap = type { ptr, ptr, ptr, i32, i32, i32, i32, i8 }
%struct.object_id = type { [32 x i8], i32 }
%struct.cache_entry = type { %struct.hashmap_entry, %struct.stat_data, i32, i32, i32, i32, i32, %struct.object_id, [0 x i8] }
%struct.hashmap_entry = type { ptr, i32 }
%struct.stat_data = type { %struct.cache_time, %struct.cache_time, i32, i32, i32, i32, i32 }

@should_validate_cache_entries.validate_index_cache_entries = internal global i32 -1, align 4
@.str.45 = private unnamed_addr constant [38 x i8] c"GIT_TEST_VALIDATE_INDEX_CACHE_ENTRIES\00", align 1
@trace_fsmonitor = external global %struct.trace_key, align 8
@.str.49 = private unnamed_addr constant [14 x i8] c"./fsmonitor.h\00", align 1
@.str.53 = private unnamed_addr constant [28 x i8] c"mark_fsmonitor_invalid '%s'\00", align 1

; Function Attrs: inlinehint nounwind uwtable
define internal i32 @trace_pass_fl(ptr noundef %0) #3 {
  %2 = alloca ptr, align 8
  store ptr %0, ptr %2, align 8, !tbaa !102
  %3 = load ptr, ptr %2, align 8, !tbaa !102
  %4 = getelementptr inbounds nuw %struct.trace_key, ptr %3, i32 0, i32 1
  %5 = load i32, ptr %4, align 8, !tbaa !104
  %6 = icmp ne i32 %5, 0
  br i1 %6, label %15, label %7

7:                                                ; preds = %1
  %8 = load ptr, ptr %2, align 8, !tbaa !102
  %9 = getelementptr inbounds nuw %struct.trace_key, ptr %8, i32 0, i32 2
  %10 = load i8, ptr %9, align 4
  %11 = and i8 %10, 1
  %12 = zext i8 %11 to i32
  %13 = icmp ne i32 %12, 0
  %14 = xor i1 %13, true
  br label %15

15:                                               ; preds = %7, %1
  %16 = phi i1 [ true, %1 ], [ %14, %7 ]
  %17 = zext i1 %16 to i32
  ret i32 %17
}

; Function Attrs: nounwind uwtable
define dso_local i32 @should_validate_cache_entries() #0 {
  %1 = load i32, ptr @should_validate_cache_entries.validate_index_cache_entries, align 4, !tbaa !9
  %2 = icmp slt i32 %1, 0
  br i1 %2, label %3, label %9

3:                                                ; preds = %0
  %4 = call ptr @getenv(ptr noundef @.str.45) #12
  %5 = icmp ne ptr %4, null
  br i1 %5, label %6, label %7

6:                                                ; preds = %3
  store i32 1, ptr @should_validate_cache_entries.validate_index_cache_entries, align 4, !tbaa !9
  br label %8

7:                                                ; preds = %3
  store i32 0, ptr @should_validate_cache_entries.validate_index_cache_entries, align 4, !tbaa !9
  br label %8

8:                                                ; preds = %7, %6
  br label %9

9:                                                ; preds = %8, %0
  %10 = load i32, ptr @should_validate_cache_entries.validate_index_cache_entries, align 4, !tbaa !9
  ret i32 %10
}

; Function Attrs: inlinehint nounwind uwtable
define internal void @mark_fsmonitor_invalid(ptr noundef %0, ptr noundef %1) #3 {
  %3 = alloca ptr, align 8
  %4 = alloca ptr, align 8
  %5 = alloca i32, align 4
  store ptr %0, ptr %3, align 8, !tbaa !4
  store ptr %1, ptr %4, align 8, !tbaa !29
  call void @llvm.lifetime.start.p0(i64 4, ptr %5) #12
  %6 = load ptr, ptr %3, align 8, !tbaa !4
  %7 = getelementptr inbounds nuw %struct.index_state, ptr %6, i32 0, i32 19
  %8 = load ptr, ptr %7, align 8, !tbaa !41
  %9 = call i32 @fsm_settings__get_mode(ptr noundef %8)
  store i32 %9, ptr %5, align 4, !tbaa !9
  %10 = load i32, ptr %5, align 4, !tbaa !9
  %11 = icmp sgt i32 %10, 0
  br i1 %11, label %12, label %31

12:                                               ; preds = %2
  %13 = load ptr, ptr %4, align 8, !tbaa !29
  %14 = getelementptr inbounds nuw %struct.cache_entry, ptr %13, i32 0, i32 3
  %15 = load i32, ptr %14, align 8, !tbaa !9
  %16 = and i32 %15, -2097153
  store i32 %16, ptr %14, align 8, !tbaa !9
  %17 = load ptr, ptr %3, align 8, !tbaa !4
  %18 = load ptr, ptr %4, align 8, !tbaa !29
  %19 = getelementptr inbounds nuw %struct.cache_entry, ptr %18, i32 0, i32 8
  %20 = getelementptr inbounds [0 x i8], ptr %19, i64 0, i64 0
  call void @untracked_cache_invalidate_path(ptr noundef %17, ptr noundef %20, i32 noundef 1)
  br label %21

21:                                               ; preds = %12
  %22 = call i32 @trace_pass_fl(ptr noundef @trace_fsmonitor)
  %23 = icmp ne i32 %22, 0
  br i1 %23, label %24, label %28

24:                                               ; preds = %21
  %25 = load ptr, ptr %4, align 8, !tbaa !29
  %26 = getelementptr inbounds nuw %struct.cache_entry, ptr %25, i32 0, i32 8
  %27 = getelementptr inbounds [0 x i8], ptr %26, i64 0, i64 0
  call void (ptr, i32, ptr, ptr, ...) @trace_printf_key_fl(ptr noundef @.str.49, i32 noundef 67, ptr noundef @trace_fsmonitor, ptr noundef @.str.53, ptr noundef %27)
  br label %28

28:                                               ; preds = %24, %21
  br label %29

29:                                               ; preds = %28
  br label %30

30:                                               ; preds = %29
  br label %31

31:                                               ; preds = %30, %2
  call void @llvm.lifetime.end.p0(i64 4, ptr %5) #12
  ret void
}

; Function Attrs: nounwind uwtable
define internal void @set_index_entry(ptr noundef %0, i32 noundef %1, ptr noundef %2) #0 {
  %4 = alloca ptr, align 8
  %5 = alloca i32, align 4
  %6 = alloca ptr, align 8
  store ptr %0, ptr %4, align 8, !tbaa !4
  store i32 %1, ptr %5, align 4, !tbaa !9
  store ptr %2, ptr %6, align 8, !tbaa !29
  %7 = load ptr, ptr %6, align 8, !tbaa !29
  %8 = getelementptr inbounds nuw %struct.cache_entry, ptr %7, i32 0, i32 2
  %9 = load i32, ptr %8, align 4, !tbaa !9
  %10 = icmp eq i32 %9, 16384
  br i1 %10, label %11, label %14

11:                                               ; preds = %3
  %12 = load ptr, ptr %4, align 8, !tbaa !4
  %13 = getelementptr inbounds nuw %struct.index_state, ptr %12, i32 0, i32 10
  store i32 1, ptr %13, align 4, !tbaa !67
  br label %14

14:                                               ; preds = %11, %3
  %15 = load ptr, ptr %6, align 8, !tbaa !29
  %16 = load ptr, ptr %4, align 8, !tbaa !4
  %17 = getelementptr inbounds nuw %struct.index_state, ptr %16, i32 0, i32 0
  %18 = load ptr, ptr %17, align 8, !tbaa !13
  %19 = load i32, ptr %5, align 4, !tbaa !9
  %20 = sext i32 %19 to i64
  %21 = getelementptr inbounds ptr, ptr %18, i64 %20
  store ptr %15, ptr %21, align 8, !tbaa !29
  %22 = load ptr, ptr %4, align 8, !tbaa !4
  %23 = load ptr, ptr %6, align 8, !tbaa !29
  call void @add_name_hash(ptr noundef %22, ptr noundef %23)
  ret void
}

; Function Attrs: nounwind uwtable
define dso_local void @discard_cache_entry(ptr noundef %0) #0 {
  %2 = alloca ptr, align 8
  store ptr %0, ptr %2, align 8, !tbaa !29
  %3 = load ptr, ptr %2, align 8, !tbaa !29
  %4 = icmp ne ptr %3, null
  br i1 %4, label %5, label %16

5:                                                ; preds = %1
  %6 = call i32 @should_validate_cache_entries()
  %7 = icmp ne i32 %6, 0
  br i1 %7, label %8, label %16

8:                                                ; preds = %5
  %9 = load ptr, ptr %2, align 8, !tbaa !29
  %10 = load ptr, ptr %2, align 8, !tbaa !29
  %11 = getelementptr inbounds nuw %struct.cache_entry, ptr %10, i32 0, i32 5
  %12 = load i32, ptr %11, align 8, !tbaa !9
  %13 = zext i32 %12 to i64
  %14 = add i64 108, %13
  %15 = add i64 %14, 1
  call void @llvm.memset.p0.i64(ptr align 8 %9, i8 -51, i64 %15, i1 false)
  br label %16

16:                                               ; preds = %8, %5, %1
  %17 = load ptr, ptr %2, align 8, !tbaa !29
  %18 = icmp ne ptr %17, null
  br i1 %18, label %19, label %25

19:                                               ; preds = %16
  %20 = load ptr, ptr %2, align 8, !tbaa !29
  %21 = getelementptr inbounds nuw %struct.cache_entry, ptr %20, i32 0, i32 4
  %22 = load i32, ptr %21, align 4, !tbaa !9
  %23 = icmp ne i32 %22, 0
  br i1 %23, label %24, label %25

24:                                               ; preds = %19
  br label %27

25:                                               ; preds = %19, %16
  %26 = load ptr, ptr %2, align 8, !tbaa !29
  call void @free(ptr noundef %26) #12
  br label %27

27:                                               ; preds = %25, %24
  ret void
}

; Function Attrs: nounwind uwtable
define internal void @replace_index_entry(ptr noundef %0, i32 noundef %1, ptr noundef %2) #0 {
  %4 = alloca ptr, align 8
  %5 = alloca i32, align 4
  %6 = alloca ptr, align 8
  %7 = alloca ptr, align 8
  store ptr %0, ptr %4, align 8, !tbaa !4
  store i32 %1, ptr %5, align 4, !tbaa !9
  store ptr %2, ptr %6, align 8, !tbaa !29
  call void @llvm.lifetime.start.p0(i64 8, ptr %7) #12
  %8 = load ptr, ptr %4, align 8, !tbaa !4
  %9 = getelementptr inbounds nuw %struct.index_state, ptr %8, i32 0, i32 0
  %10 = load ptr, ptr %9, align 8, !tbaa !13
  %11 = load i32, ptr %5, align 4, !tbaa !9
  %12 = sext i32 %11 to i64
  %13 = getelementptr inbounds ptr, ptr %10, i64 %12
  %14 = load ptr, ptr %13, align 8, !tbaa !29
  store ptr %14, ptr %7, align 8, !tbaa !29
  %15 = load ptr, ptr %4, align 8, !tbaa !4
  %16 = load ptr, ptr %7, align 8, !tbaa !29
  %17 = load ptr, ptr %6, align 8, !tbaa !29
  call void @replace_index_entry_in_base(ptr noundef %15, ptr noundef %16, ptr noundef %17)
  %18 = load ptr, ptr %4, align 8, !tbaa !4
  %19 = load ptr, ptr %7, align 8, !tbaa !29
  call void @remove_name_hash(ptr noundef %18, ptr noundef %19)
  %20 = load ptr, ptr %7, align 8, !tbaa !29
  call void @discard_cache_entry(ptr noundef %20)
  %21 = load ptr, ptr %6, align 8, !tbaa !29
  %22 = getelementptr inbounds nuw %struct.cache_entry, ptr %21, i32 0, i32 3
  %23 = load i32, ptr %22, align 8, !tbaa !9
  %24 = and i32 %23, -1048577
  store i32 %24, ptr %22, align 8, !tbaa !9
  %25 = load ptr, ptr %4, align 8, !tbaa !4
  %26 = load i32, ptr %5, align 4, !tbaa !9
  %27 = load ptr, ptr %6, align 8, !tbaa !29
  call void @set_index_entry(ptr noundef %25, i32 noundef %26, ptr noundef %27)
  %28 = load ptr, ptr %6, align 8, !tbaa !29
  %29 = getelementptr inbounds nuw %struct.cache_entry, ptr %28, i32 0, i32 3
  %30 = load i32, ptr %29, align 8, !tbaa !9
  %31 = or i32 %30, 134217728
  store i32 %31, ptr %29, align 8, !tbaa !9
  %32 = load ptr, ptr %4, align 8, !tbaa !4
  %33 = load ptr, ptr %6, align 8, !tbaa !29
  call void @mark_fsmonitor_invalid(ptr noundef %32, ptr noundef %33)
  %34 = load ptr, ptr %4, align 8, !tbaa !4
  %35 = getelementptr inbounds nuw %struct.index_state, ptr %34, i32 0, i32 4
  %36 = load i32, ptr %35, align 4, !tbaa !33
  %37 = or i32 %36, 2
  store i32 %37, ptr %35, align 4, !tbaa !33
  call void @llvm.lifetime.end.p0(i64 8, ptr %7) #12
  ret void
}