; Function Attrs: nounwind uwtable
define internal fastcc void @replace_index_entry(ptr noundef %0, i32 noundef %1, ptr noundef %2) unnamed_addr #0 {
  %4 = load ptr, ptr %0, align 8, !tbaa !4
  %5 = sext i32 %1 to i64
  %6 = getelementptr inbounds ptr, ptr %4, i64 %5
  %7 = load ptr, ptr %6, align 8, !tbaa !25
  tail call void @replace_index_entry_in_base(ptr noundef nonnull %0, ptr noundef %7, ptr noundef %2) #30
  tail call void @remove_name_hash(ptr noundef nonnull %0, ptr noundef %7) #30
  %.not.i = icmp eq ptr %7, null
  br i1 %.not.i, label %.critedge.i, label %8

8:                                                ; preds = %3
  %9 = load i32, ptr @should_validate_cache_entries.validate_index_cache_entries, align 4, !tbaa !32
  %10 = icmp slt i32 %9, 0
  br i1 %10, label %.sink.split.i.i, label %should_validate_cache_entries.exit.i

.sink.split.i.i:                                  ; preds = %8
  %11 = tail call ptr @getenv(ptr noundef nonnull @.str.45) #30
  %.not.i.i = icmp ne ptr %11, null
  %..i.i = zext i1 %.not.i.i to i32
  store i32 %..i.i, ptr @should_validate_cache_entries.validate_index_cache_entries, align 4, !tbaa !32
  br label %should_validate_cache_entries.exit.i

should_validate_cache_entries.exit.i:             ; preds = %.sink.split.i.i, %8
  %12 = phi i32 [ %9, %8 ], [ %..i.i, %.sink.split.i.i ]
  %.not6.i = icmp eq i32 %12, 0
  br i1 %.not6.i, label %18, label %13

13:                                               ; preds = %should_validate_cache_entries.exit.i
  %14 = getelementptr inbounds nuw i8, ptr %7, i64 64
  %15 = load i32, ptr %14, align 8, !tbaa !32
  %16 = zext i32 %15 to i64
  %17 = add nuw nsw i64 %16, 109
  tail call void @llvm.memset.p0.i64(ptr noundef nonnull align 8 dereferenceable(1) %7, i8 -51, i64 %17, i1 false)
  br label %18

18:                                               ; preds = %13, %should_validate_cache_entries.exit.i
  %19 = getelementptr inbounds nuw i8, ptr %7, i64 60
  %20 = load i32, ptr %19, align 4, !tbaa !32
  %.not7.i = icmp eq i32 %20, 0
  br i1 %.not7.i, label %.critedge.i, label %discard_cache_entry.exit

.critedge.i:                                      ; preds = %18, %3
  tail call void @free(ptr noundef %7) #30
  br label %discard_cache_entry.exit

discard_cache_entry.exit:                         ; preds = %18, %.critedge.i
  %21 = getelementptr inbounds nuw i8, ptr %2, i64 56
  %22 = load i32, ptr %21, align 8, !tbaa !32
  %23 = and i32 %22, -1048577
  store i32 %23, ptr %21, align 8, !tbaa !32
  %24 = getelementptr inbounds nuw i8, ptr %2, i64 52
  %25 = load i32, ptr %24, align 4, !tbaa !32
  %26 = icmp eq i32 %25, 16384
  br i1 %26, label %27, label %set_index_entry.exit

27:                                               ; preds = %discard_cache_entry.exit
  %28 = getelementptr inbounds nuw i8, ptr %0, i64 60
  store i32 1, ptr %28, align 4, !tbaa !41
  br label %set_index_entry.exit

set_index_entry.exit:                             ; preds = %discard_cache_entry.exit, %27
  %29 = load ptr, ptr %0, align 8, !tbaa !4
  %30 = getelementptr inbounds ptr, ptr %29, i64 %5
  store ptr %2, ptr %30, align 8, !tbaa !25
  tail call void @add_name_hash(ptr noundef nonnull %0, ptr noundef nonnull %2) #30
  %31 = load i32, ptr %21, align 8, !tbaa !32
  %32 = or i32 %31, 134217728
  store i32 %32, ptr %21, align 8, !tbaa !32
  %33 = getelementptr inbounds nuw i8, ptr %0, i64 240
  %34 = load ptr, ptr %33, align 8, !tbaa !46
  %35 = tail call i32 @fsm_settings__get_mode(ptr noundef %34) #30
  %36 = icmp sgt i32 %35, 0
  br i1 %36, label %37, label %mark_fsmonitor_invalid.exit

37:                                               ; preds = %set_index_entry.exit
  %38 = load i32, ptr %21, align 8, !tbaa !32
  %39 = and i32 %38, -2097153
  store i32 %39, ptr %21, align 8, !tbaa !32
  %40 = getelementptr inbounds nuw i8, ptr %2, i64 108
  tail call void @untracked_cache_invalidate_path(ptr noundef nonnull %0, ptr noundef nonnull %40, i32 noundef 1) #30
  %trace_fsmonitor.val.i = load i32, ptr getelementptr inbounds nuw (i8, ptr @trace_fsmonitor, i64 8), align 8, !tbaa !47
  %trace_fsmonitor.val5.i = load i8, ptr getelementptr inbounds nuw (i8, ptr @trace_fsmonitor, i64 12), align 4
  %.not.i.i15 = icmp eq i32 %trace_fsmonitor.val.i, 0
  %41 = and i8 %trace_fsmonitor.val5.i, 1
  %.not6.i16 = icmp ne i8 %41, 0
  %.not.i17 = select i1 %.not.i.i15, i1 %.not6.i16, i1 false
  br i1 %.not.i17, label %mark_fsmonitor_invalid.exit, label %42

42:                                               ; preds = %37
  tail call void (ptr, i32, ptr, ptr, ...) @trace_printf_key_fl(ptr noundef nonnull @.str.49, i32 noundef 67, ptr noundef nonnull @trace_fsmonitor, ptr noundef nonnull @.str.53, ptr noundef nonnull %40) #30
  br label %mark_fsmonitor_invalid.exit

mark_fsmonitor_invalid.exit:                      ; preds = %set_index_entry.exit, %37, %42
  %43 = getelementptr inbounds nuw i8, ptr %0, i64 20
  %44 = load i32, ptr %43, align 4, !tbaa !33
  %45 = or i32 %44, 2
  store i32 %45, ptr %43, align 4, !tbaa !33
  ret void
}